; Function Attrs: mustprogress null_pointer_is_valid sspstrong uwtable
define internal void @"_ZN9QtPrivate18QFunctorSlotObjectIZN19WiresharkMainWindow25connectAnalyzeMenuActionsEvE3$_1Li0ENS_4ListIJEEEvE4implEiPNS_15QSlotObjectBaseEP7QObjectPPvPb"(i32 noundef %0, ptr noundef %1, ptr readnone captures(none) %2, ptr readnone captures(none) %3, ptr readnone captures(none) %4) #0 align 2 personality ptr @__gxx_personality_v0 {
  %6 = alloca %class.QString, align 8
  switch i32 %0, label %28 [
    i32 0, label %7
    i32 1, label %10
  ]

7:                                                ; preds = %5
  %8 = icmp eq ptr %1, null
  br i1 %8, label %28, label %9

9:                                                ; preds = %7
  tail call void @_ZdlPvm(ptr noundef nonnull %1, i64 noundef 24) #26
  br label %28

10:                                               ; preds = %5
  %11 = getelementptr inbounds nuw i8, ptr %1, i64 16
  %.val = load ptr, ptr %11, align 8
  call void @llvm.lifetime.start.p0(i64 24, ptr nonnull %6)
  %12 = tail call noalias noundef dereferenceable_or_null(104) ptr @_Znwm(i64 noundef 104) #28
  %13 = invoke noundef ptr @_ZNK7QWidget6windowEv(ptr noundef align 8 dereferenceable_or_null(40) %.val)
          to label %14 unwind label %20

14:                                               ; preds = %10
  call void @llvm.memset.p0.i64(ptr noundef nonnull align 8 dereferenceable(24) dereferenceable_or_null(24) %6, i8 0, i64 24, i1 false)
  invoke void @_ZN12FilterDialogC1EP7QWidgetNS_10FilterTypeE7QString(ptr noundef align 8 dereferenceable_or_null(104) %12, ptr noundef %13, i32 noundef 2, ptr noundef nonnull %6)
          to label %15 unwind label %22

15:                                               ; preds = %14
  %16 = load ptr, ptr %6, align 8
  %.not.i.i.i.i.i.i = icmp eq ptr %16, null
  br i1 %.not.i.i.i.i.i.i, label %"_ZN9QtPrivate7FunctorIZN19WiresharkMainWindow25connectAnalyzeMenuActionsEvE3$_1Li0EE4callINS_4ListIJEEEvEEvRS2_PvPS8_.exit", label %_ZN17QArrayDataPointerIDsE5derefEv.exit.i.i.i.i.i

_ZN17QArrayDataPointerIDsE5derefEv.exit.i.i.i.i.i: ; preds = %15
  %17 = atomicrmw sub ptr %16, i32 1 seq_cst, align 4
  %.not.i.i.i.i.i = icmp eq i32 %17, 1
  br i1 %.not.i.i.i.i.i, label %18, label %"_ZN9QtPrivate7FunctorIZN19WiresharkMainWindow25connectAnalyzeMenuActionsEvE3$_1Li0EE4callINS_4ListIJEEEvEEvRS2_PvPS8_.exit"

18:                                               ; preds = %_ZN17QArrayDataPointerIDsE5derefEv.exit.i.i.i.i.i
  %19 = load ptr, ptr %6, align 8
  call void @_ZN10QArrayData10deallocateEPS_xx(ptr noundef %19, i64 noundef 2, i64 noundef 8) #25
  br label %"_ZN9QtPrivate7FunctorIZN19WiresharkMainWindow25connectAnalyzeMenuActionsEvE3$_1Li0EE4callINS_4ListIJEEEvEEvRS2_PvPS8_.exit"

20:                                               ; preds = %10
  %21 = landingpad { ptr, i32 }
          cleanup
  br label %_ZN7QStringD2Ev.exit11.i.i.i

22:                                               ; preds = %14
  %23 = landingpad { ptr, i32 }
          cleanup
  %24 = load ptr, ptr %6, align 8
  %.not.i.i.i8.i.i.i = icmp eq ptr %24, null
  br i1 %.not.i.i.i8.i.i.i, label %_ZN7QStringD2Ev.exit11.i.i.i, label %_ZN17QArrayDataPointerIDsE5derefEv.exit.i.i9.i.i.i

_ZN17QArrayDataPointerIDsE5derefEv.exit.i.i9.i.i.i: ; preds = %22
  %25 = atomicrmw sub ptr %24, i32 1 seq_cst, align 4
  %.not.i.i10.i.i.i = icmp eq i32 %25, 1
  br i1 %.not.i.i10.i.i.i, label %26, label %_ZN7QStringD2Ev.exit11.i.i.i

26:                                               ; preds = %_ZN17QArrayDataPointerIDsE5derefEv.exit.i.i9.i.i.i
  %27 = load ptr, ptr %6, align 8
  call void @_ZN10QArrayData10deallocateEPS_xx(ptr noundef %27, i64 noundef 2, i64 noundef 8) #25
  br label %_ZN7QStringD2Ev.exit11.i.i.i

_ZN7QStringD2Ev.exit11.i.i.i:                     ; preds = %26, %_ZN17QArrayDataPointerIDsE5derefEv.exit.i.i9.i.i.i, %22, %20
  %.pn.i.i.i = phi { ptr, i32 } [ %21, %20 ], [ %23, %22 ], [ %23, %_ZN17QArrayDataPointerIDsE5derefEv.exit.i.i9.i.i.i ], [ %23, %26 ]
  call void @_ZdlPvm(ptr noundef %12, i64 noundef 104) #26
  resume { ptr, i32 } %.pn.i.i.i

"_ZN9QtPrivate7FunctorIZN19WiresharkMainWindow25connectAnalyzeMenuActionsEvE3$_1Li0EE4callINS_4ListIJEEEvEEvRS2_PvPS8_.exit": ; preds = %15, %_ZN17QArrayDataPointerIDsE5derefEv.exit.i.i.i.i.i, %18
  call void @_ZN19GeometryStateDialog17setWindowModalityEN2Qt14WindowModalityE(ptr noundef align 8 dereferenceable_or_null(72) %12, i32 noundef 2)
  call void @_ZN7QWidget12setAttributeEN2Qt15WidgetAttributeEb(ptr noundef align 8 dereferenceable_or_null(40) %12, i32 noundef 55, i1 noundef zeroext true)
  call void @_ZN7QWidget4showEv(ptr noundef align 8 dereferenceable_or_null(40) %12)
  call void @llvm.lifetime.end.p0(i64 24, ptr nonnull %6)
  br label %28

28:                                               ; preds = %7, %9, %"_ZN9QtPrivate7FunctorIZN19WiresharkMainWindow25connectAnalyzeMenuActionsEvE3$_1Li0EE4callINS_4ListIJEEEvEEvRS2_PvPS8_.exit", %5
  ret void
}